; Function Attrs: mustprogress nofree norecurse nosync nounwind willreturn memory(argmem: read) uwtable
define hidden zeroext i16 @png_get_uint_16(ptr nocapture noundef readonly %0) local_unnamed_addr #2 {
  %2 = load i8, ptr %0, align 1
  %3 = zext i8 %2 to i16
  %4 = shl nuw i16 %3, 8
  %5 = getelementptr inbounds i8, ptr %0, i64 1
  %6 = load i8, ptr %5, align 1
  %7 = zext i8 %6 to i16
  %8 = or disjoint i16 %4, %7
  ret i16 %8
}